; Function Attrs: mustprogress nofree norecurse nosync nounwind willreturn memory(argmem: write) uwtable
define void @rocksdb_options_set_bottommost_compression_options(ptr noundef writeonly captures(none) initializes((1304, 1320), (1328, 1329)) %0, i32 noundef %1, i32 noundef %2, i32 noundef %3, i32 noundef %4, i8 noundef zeroext %5) local_unnamed_addr #7 {
  %7 = getelementptr inbounds nuw i8, ptr %0, i64 1304
  store i32 %1, ptr %7, align 8, !tbaa !696
  %8 = getelementptr inbounds nuw i8, ptr %0, i64 1308
  store i32 %2, ptr %8, align 4, !tbaa !697
  %9 = getelementptr inbounds nuw i8, ptr %0, i64 1312
  store i32 %3, ptr %9, align 8, !tbaa !698
  %10 = getelementptr inbounds nuw i8, ptr %0, i64 1316
  store i32 %4, ptr %10, align 4, !tbaa !699
  %11 = icmp ne i8 %5, 0
  %12 = getelementptr inbounds nuw i8, ptr %0, i64 1328
  %13 = zext i1 %11 to i8
  store i8 %13, ptr %12, align 8, !tbaa !700
  ret void
}